; ModuleID = '49/17.c'
source_filename = "49/17.c"
target datalayout = "e-m:e-p270:32:32-p271:32:32-p272:64:64-i64:64-f80:128-n8:16:32:64-S128"
target triple = "x86_64-pc-linux-gnu"

@.str = private unnamed_addr constant [3 x i8] c"%s\00", align 1
@.str.1 = private unnamed_addr constant [3 x i8] c"%c\00", align 1
@.str.2 = private unnamed_addr constant [4 x i8] c"%c\0A\00", align 1

; Function Attrs: noinline nounwind uwtable
define dso_local void @main() #0 {
  %1 = alloca i32, align 4
  %2 = alloca i32, align 4
  %3 = alloca i32, align 4
  %4 = alloca i32, align 4
  %5 = alloca i32, align 4
  %6 = alloca i32, align 4
  %7 = alloca [500 x i8], align 16
  %8 = getelementptr inbounds [500 x i8], [500 x i8]* %7, i64 0, i64 0
  %9 = call i32 (i8*, ...) @__isoc99_scanf(i8* getelementptr inbounds ([3 x i8], [3 x i8]* @.str, i64 0, i64 0), i8* %8)
  %10 = getelementptr inbounds [500 x i8], [500 x i8]* %7, i64 0, i64 0
  %11 = call i64 @strlen(i8* %10) #3
  %12 = trunc i64 %11 to i32
  store i32 %12, i32* %6, align 4
  store i32 2, i32* %1, align 4
  br label %13

13:                                               ; preds = %96, %0
  %14 = load i32, i32* %1, align 4
  %15 = load i32, i32* %6, align 4
  %16 = icmp sle i32 %14, %15
  br i1 %16, label %17, label %99

17:                                               ; preds = %13
  store i32 0, i32* %2, align 4
  br label %18

18:                                               ; preds = %92, %17
  %19 = load i32, i32* %2, align 4
  %20 = load i32, i32* %6, align 4
  %21 = load i32, i32* %1, align 4
  %22 = sub nsw i32 %20, %21
  %23 = icmp sle i32 %19, %22
  br i1 %23, label %24, label %95

24:                                               ; preds = %18
  %25 = load i32, i32* %2, align 4
  store i32 %25, i32* %3, align 4
  %26 = load i32, i32* %2, align 4
  %27 = load i32, i32* %1, align 4
  %28 = add nsw i32 %26, %27
  %29 = sub nsw i32 %28, 1
  store i32 %29, i32* %4, align 4
  br label %30

30:                                               ; preds = %90, %24
  %31 = load i32, i32* %3, align 4
  %32 = load i32, i32* %4, align 4
  %33 = icmp slt i32 %31, %32
  br i1 %33, label %34, label %91

34:                                               ; preds = %30
  %35 = load i32, i32* %3, align 4
  %36 = sext i32 %35 to i64
  %37 = getelementptr inbounds [500 x i8], [500 x i8]* %7, i64 0, i64 %36
  %38 = load i8, i8* %37, align 1
  %39 = sext i8 %38 to i32
  %40 = load i32, i32* %4, align 4
  %41 = sext i32 %40 to i64
  %42 = getelementptr inbounds [500 x i8], [500 x i8]* %7, i64 0, i64 %41
  %43 = load i8, i8* %42, align 1
  %44 = sext i8 %43 to i32
  %45 = icmp eq i32 %39, %44
  br i1 %45, label %46, label %51

46:                                               ; preds = %34
  %47 = load i32, i32* %3, align 4
  %48 = add nsw i32 %47, 1
  store i32 %48, i32* %3, align 4
  %49 = load i32, i32* %4, align 4
  %50 = add nsw i32 %49, -1
  store i32 %50, i32* %4, align 4
  br label %52

51:                                               ; preds = %34
  br label %91

52:                                               ; preds = %46
  %53 = load i32, i32* %3, align 4
  %54 = load i32, i32* %4, align 4
  %55 = add nsw i32 %54, 1
  %56 = icmp eq i32 %53, %55
  br i1 %56, label %61, label %57

57:                                               ; preds = %52
  %58 = load i32, i32* %3, align 4
  %59 = load i32, i32* %4, align 4
  %60 = icmp eq i32 %58, %59
  br i1 %60, label %61, label %90

61:                                               ; preds = %57, %52
  %62 = load i32, i32* %2, align 4
  store i32 %62, i32* %5, align 4
  br label %63

63:                                               ; preds = %77, %61
  %64 = load i32, i32* %5, align 4
  %65 = load i32, i32* %2, align 4
  %66 = load i32, i32* %1, align 4
  %67 = add nsw i32 %65, %66
  %68 = sub nsw i32 %67, 2
  %69 = icmp sle i32 %64, %68
  br i1 %69, label %70, label %80

70:                                               ; preds = %63
  %71 = load i32, i32* %5, align 4
  %72 = sext i32 %71 to i64
  %73 = getelementptr inbounds [500 x i8], [500 x i8]* %7, i64 0, i64 %72
  %74 = load i8, i8* %73, align 1
  %75 = sext i8 %74 to i32
  %76 = call i32 (i8*, ...) @printf(i8* getelementptr inbounds ([3 x i8], [3 x i8]* @.str.1, i64 0, i64 0), i32 %75)
  br label %77

77:                                               ; preds = %70
  %78 = load i32, i32* %5, align 4
  %79 = add nsw i32 %78, 1
  store i32 %79, i32* %5, align 4
  br label %63

80:                                               ; preds = %63
  %81 = load i32, i32* %2, align 4
  %82 = load i32, i32* %1, align 4
  %83 = add nsw i32 %81, %82
  %84 = sub nsw i32 %83, 1
  %85 = sext i32 %84 to i64
  %86 = getelementptr inbounds [500 x i8], [500 x i8]* %7, i64 0, i64 %85
  %87 = load i8, i8* %86, align 1
  %88 = sext i8 %87 to i32
  %89 = call i32 (i8*, ...) @printf(i8* getelementptr inbounds ([4 x i8], [4 x i8]* @.str.2, i64 0, i64 0), i32 %88)
  br label %91

90:                                               ; preds = %57
  br label %30

91:                                               ; preds = %80, %51, %30
  br label %92

92:                                               ; preds = %91
  %93 = load i32, i32* %2, align 4
  %94 = add nsw i32 %93, 1
  store i32 %94, i32* %2, align 4
  br label %18

95:                                               ; preds = %18
  br label %96

96:                                               ; preds = %95
  %97 = load i32, i32* %1, align 4
  %98 = add nsw i32 %97, 1
  store i32 %98, i32* %1, align 4
  br label %13

99:                                               ; preds = %13
  ret void
}

declare dso_local i32 @__isoc99_scanf(i8*, ...) #1

; Function Attrs: nounwind readonly
declare dso_local i64 @strlen(i8*) #2

declare dso_local i32 @printf(i8*, ...) #1


!llvm.module.flags = !{!0}
!llvm.ident = !{!1}

!0 = !{i32 1, !"wchar_size", i32 4}
!1 = !{!"clang version 10.0.0-4ubuntu1 "}
